; Function Attrs: mustprogress uwtable
define hidden void @_ZN4perf8TestBase8TearDownEv(ptr noundef nonnull align 8 dereferenceable(248) %0) unnamed_addr #5 align 2 personality ptr @__gxx_personality_v0 {
  %2 = alloca %"class.testing::Message", align 8
  %3 = alloca %"class.testing::internal::AssertHelper", align 8
  %4 = getelementptr inbounds nuw i8, ptr %0, i64 224
  %5 = load i32, ptr %4, align 8, !tbaa !340
  %6 = icmp eq i32 %5, 4
  br i1 %6, label %43, label %7

7:                                                ; preds = %1
  %8 = tail call noundef zeroext i1 @_ZN7testing4Test15HasFatalFailureEv()
  br i1 %8, label %_ZN7testing4Test10HasFailureEv.exit.thread, label %_ZN7testing4Test10HasFailureEv.exit

_ZN7testing4Test10HasFailureEv.exit:              ; preds = %7
  %9 = tail call noundef zeroext i1 @_ZN7testing4Test18HasNonfatalFailureEv()
  br i1 %9, label %_ZN7testing4Test10HasFailureEv.exit.thread, label %10

10:                                               ; preds = %_ZN7testing4Test10HasFailureEv.exit
  %11 = getelementptr inbounds nuw i8, ptr %0, i64 232
  %12 = load i8, ptr %11, align 8, !tbaa !19, !range !42, !noundef !43
  %13 = trunc nuw i8 %12 to i1
  br i1 %13, label %_ZN7testing4Test10HasFailureEv.exit.thread, label %14

14:                                               ; preds = %10
  call void @llvm.lifetime.start.p0(i64 8, ptr nonnull %2) #39
  call void @_ZN7testing7MessageC1Ev(ptr noundef nonnull align 8 dereferenceable(8) %2)
  %15 = load ptr, ptr %2, align 8, !tbaa !46
  %16 = getelementptr inbounds nuw i8, ptr %15, i64 16
  %17 = invoke noundef nonnull align 8 dereferenceable(8) ptr @_ZSt16__ostream_insertIcSt11char_traitsIcEERSt13basic_ostreamIT_T0_ES6_PKS3_l(ptr noundef nonnull align 8 dereferenceable(8) %16, ptr noundef nonnull @.str.234, i64 noundef 97)
          to label %_ZN7testing7MessagelsIA98_cEERS0_RKT_.exit unwind label %33

_ZN7testing7MessagelsIA98_cEERS0_RKT_.exit:       ; preds = %14
  call void @llvm.lifetime.start.p0(i64 8, ptr nonnull %3) #39
  invoke void @_ZN7testing8internal12AssertHelperC1ENS_14TestPartResult4TypeEPKciS5_(ptr noundef nonnull align 8 dereferenceable(8) %3, i32 noundef 1, ptr noundef nonnull @.str.60, i32 noundef 1831, ptr noundef nonnull @.str.115)
          to label %18 unwind label %35

18:                                               ; preds = %_ZN7testing7MessagelsIA98_cEERS0_RKT_.exit
  invoke void @_ZNK7testing8internal12AssertHelperaSERKNS_7MessageE(ptr noundef nonnull align 8 dereferenceable(8) %3, ptr noundef nonnull align 8 dereferenceable(8) %2)
          to label %19 unwind label %37

19:                                               ; preds = %18
  call void @_ZN7testing8internal12AssertHelperD1Ev(ptr noundef nonnull align 8 dereferenceable(8) %3) #39
  call void @llvm.lifetime.end.p0(i64 8, ptr nonnull %3) #39
  %20 = load ptr, ptr %2, align 8, !tbaa !46
  %.not.i.i.i = icmp eq ptr %20, null
  br i1 %.not.i.i.i, label %_ZN7testing7MessageD2Ev.exit, label %21

21:                                               ; preds = %19
  %22 = invoke noundef zeroext i1 @_ZN7testing8internal6IsTrueEb(i1 noundef zeroext true)
          to label %.noexc.i.i unwind label %30

.noexc.i.i:                                       ; preds = %21
  br i1 %22, label %23, label %_ZN7testing7MessageD2Ev.exit

23:                                               ; preds = %.noexc.i.i
  %24 = load ptr, ptr %2, align 8, !tbaa !46
  %25 = icmp eq ptr %24, null
  br i1 %25, label %_ZN7testing7MessageD2Ev.exit, label %26

26:                                               ; preds = %23
  %27 = load ptr, ptr %24, align 8, !tbaa !49
  %28 = getelementptr inbounds nuw i8, ptr %27, i64 8
  %29 = load ptr, ptr %28, align 8
  call void %29(ptr noundef nonnull align 8 dereferenceable(128) %24) #39
  br label %_ZN7testing7MessageD2Ev.exit

30:                                               ; preds = %21
  %31 = landingpad { ptr, i32 }
          catch ptr null
  %32 = extractvalue { ptr, i32 } %31, 0
  call void @__clang_call_terminate(ptr %32) #40
  unreachable

_ZN7testing7MessageD2Ev.exit:                     ; preds = %.noexc.i.i, %23, %26, %19
  call void @llvm.lifetime.end.p0(i64 8, ptr nonnull %2) #39
  br label %_ZN7testing4Test10HasFailureEv.exit.thread

33:                                               ; preds = %14
  %34 = landingpad { ptr, i32 }
          cleanup
  br label %40

35:                                               ; preds = %_ZN7testing7MessagelsIA98_cEERS0_RKT_.exit
  %36 = landingpad { ptr, i32 }
          cleanup
  br label %39

37:                                               ; preds = %18
  %38 = landingpad { ptr, i32 }
          cleanup
  call void @_ZN7testing8internal12AssertHelperD1Ev(ptr noundef nonnull align 8 dereferenceable(8) %3) #39
  br label %39

39:                                               ; preds = %37, %35
  %.pn = phi { ptr, i32 } [ %38, %37 ], [ %36, %35 ]
  call void @llvm.lifetime.end.p0(i64 8, ptr nonnull %3) #39
  br label %40

40:                                               ; preds = %39, %33
  %.pn.pn = phi { ptr, i32 } [ %.pn, %39 ], [ %34, %33 ]
  call void @_ZN7testing7MessageD2Ev(ptr noundef nonnull align 8 dereferenceable(8) %2) #39
  call void @llvm.lifetime.end.p0(i64 8, ptr nonnull %2) #39
  resume { ptr, i32 } %.pn.pn

_ZN7testing4Test10HasFailureEv.exit.thread:       ; preds = %7, %_ZN7testing7MessageD2Ev.exit, %10, %_ZN7testing4Test10HasFailureEv.exit
  call void @_ZN4perf8TestBase15validateMetricsEv(ptr noundef nonnull align 8 dereferenceable(248) %0)
  %41 = call noundef zeroext i1 @_ZN7testing4Test15HasFatalFailureEv()
  br i1 %41, label %_ZN7testing4Test10HasFailureEv.exit6.thread, label %_ZN7testing4Test10HasFailureEv.exit6

_ZN7testing4Test10HasFailureEv.exit6:             ; preds = %_ZN7testing4Test10HasFailureEv.exit.thread
  %42 = call noundef zeroext i1 @_ZN7testing4Test18HasNonfatalFailureEv()
  br i1 %42, label %_ZN7testing4Test10HasFailureEv.exit6.thread, label %43

43:                                               ; preds = %_ZN7testing4Test10HasFailureEv.exit6, %1
  br label %_ZN7testing4Test10HasFailureEv.exit6.thread

_ZN7testing4Test10HasFailureEv.exit6.thread:      ; preds = %_ZN7testing4Test10HasFailureEv.exit6, %_ZN7testing4Test10HasFailureEv.exit.thread, %43
  %.sink = phi i1 [ true, %43 ], [ false, %_ZN7testing4Test10HasFailureEv.exit.thread ], [ false, %_ZN7testing4Test10HasFailureEv.exit6 ]
  call void @_ZN4perf8TestBase13reportMetricsEb(ptr noundef nonnull align 8 dereferenceable(248) %0, i1 noundef zeroext %.sink)
  ret void
}